target datalayout = "e-m:e-p270:32:32-p271:32:32-p272:64:64-i64:64-i128:128-f80:128-n8:16:32:64-S128"
target triple = "x86_64-pc-linux-gnu"

%struct.PJconsts = type { ptr, ptr, ptr, ptr, ptr, ptr, ptr, ptr, ptr, ptr, ptr, ptr, i32, ptr, ptr, ptr, ptr, ptr, ptr, ptr, ptr, double, double, double, double, double, double, double, double, double, double, double, double, double, double, double, double, double, double, double, double, double, double, i32, i32, i32, i32, i32, i32, i32, i32, i32, i32, i32, ptr, ptr, ptr, ptr, ptr, ptr, double, double, double, double, double, double, double, double, double, double, double, i32, [7 x double], i32, ptr, ptr, double, double, i32, [4 x i8], %"class.std::shared_ptr", i8, double, i8, %"class.std::__cxx11::basic_string", %"class.std::__cxx11::basic_string", %"class.std::__cxx11::basic_string", i8, %"class.std::vector", i32, %"class.std::vector.3", i32, i8, i8, i8, ptr }
%"class.std::shared_ptr" = type { %"class.std::__shared_ptr" }
%"class.std::__shared_ptr" = type { ptr, %"class.std::__shared_count" }
%"class.std::__shared_count" = type { ptr }
%"class.std::__cxx11::basic_string" = type { %"struct.std::__cxx11::basic_string<char>::_Alloc_hider", i64, %union.anon }
%"struct.std::__cxx11::basic_string<char>::_Alloc_hider" = type { ptr }
%union.anon = type { i64, [8 x i8] }
%"class.std::vector" = type { %"struct.std::_Vector_base" }
%"struct.std::_Vector_base" = type { %"struct.std::_Vector_base<osgeo::proj::operation::GridDescription, std::allocator<osgeo::proj::operation::GridDescription>>::_Vector_impl" }
%"struct.std::_Vector_base<osgeo::proj::operation::GridDescription, std::allocator<osgeo::proj::operation::GridDescription>>::_Vector_impl" = type { %"struct.std::_Vector_base<osgeo::proj::operation::GridDescription, std::allocator<osgeo::proj::operation::GridDescription>>::_Vector_impl_data" }
%"struct.std::_Vector_base<osgeo::proj::operation::GridDescription, std::allocator<osgeo::proj::operation::GridDescription>>::_Vector_impl_data" = type { ptr, ptr, ptr }
%"class.std::vector.3" = type { %"struct.std::_Vector_base.4" }
%"struct.std::_Vector_base.4" = type { %"struct.std::_Vector_base<PJCoordOperation, std::allocator<PJCoordOperation>>::_Vector_impl" }
%"struct.std::_Vector_base<PJCoordOperation, std::allocator<PJCoordOperation>>::_Vector_impl" = type { %"struct.std::_Vector_base<PJCoordOperation, std::allocator<PJCoordOperation>>::_Vector_impl_data" }
%"struct.std::_Vector_base<PJCoordOperation, std::allocator<PJCoordOperation>>::_Vector_impl_data" = type { ptr, ptr, ptr }
%struct.PJ_XYZ = type { double, double, double }
%"struct.(anonymous namespace)::pj_opaque" = type { double, double, double, double, double, double, double }

; Function Attrs: mustprogress nounwind uwtable
define internal void @_ZL15topocentric_fwdR8PJ_COORDP8PJconsts(ptr noundef nonnull align 8 dereferenceable(32) %0, ptr noundef %1) #6 {
  %3 = alloca ptr, align 8
  %4 = alloca ptr, align 8
  %5 = alloca ptr, align 8
  %6 = alloca double, align 8
  %7 = alloca double, align 8
  %8 = alloca double, align 8
  store ptr %0, ptr %3, align 8, !tbaa !71
  store ptr %1, ptr %4, align 8, !tbaa !3
  call void @llvm.lifetime.start.p0(i64 8, ptr %5) #8
  %9 = load ptr, ptr %4, align 8, !tbaa !3
  %10 = getelementptr inbounds nuw %struct.PJconsts, ptr %9, i32 0, i32 11
  %11 = load ptr, ptr %10, align 8, !tbaa !43
  store ptr %11, ptr %5, align 8, !tbaa !41
  call void @llvm.lifetime.start.p0(i64 8, ptr %6) #8
  %12 = load ptr, ptr %3, align 8, !tbaa !71
  %13 = getelementptr inbounds nuw %struct.PJ_XYZ, ptr %12, i32 0, i32 0
  %14 = load double, ptr %13, align 8, !tbaa !47
  %15 = load ptr, ptr %5, align 8, !tbaa !41
  %16 = getelementptr inbounds nuw %"struct.(anonymous namespace)::pj_opaque", ptr %15, i32 0, i32 0
  %17 = load double, ptr %16, align 8, !tbaa !48
  %18 = fsub double %14, %17
  store double %18, ptr %6, align 8, !tbaa !57
  call void @llvm.lifetime.start.p0(i64 8, ptr %7) #8
  %19 = load ptr, ptr %3, align 8, !tbaa !71
  %20 = getelementptr inbounds nuw %struct.PJ_XYZ, ptr %19, i32 0, i32 1
  %21 = load double, ptr %20, align 8, !tbaa !47
  %22 = load ptr, ptr %5, align 8, !tbaa !41
  %23 = getelementptr inbounds nuw %"struct.(anonymous namespace)::pj_opaque", ptr %22, i32 0, i32 1
  %24 = load double, ptr %23, align 8, !tbaa !50
  %25 = fsub double %21, %24
  store double %25, ptr %7, align 8, !tbaa !57
  call void @llvm.lifetime.start.p0(i64 8, ptr %8) #8
  %26 = load ptr, ptr %3, align 8, !tbaa !71
  %27 = getelementptr inbounds nuw %struct.PJ_XYZ, ptr %26, i32 0, i32 2
  %28 = load double, ptr %27, align 8, !tbaa !47
  %29 = load ptr, ptr %5, align 8, !tbaa !41
  %30 = getelementptr inbounds nuw %"struct.(anonymous namespace)::pj_opaque", ptr %29, i32 0, i32 2
  %31 = load double, ptr %30, align 8, !tbaa !51
  %32 = fsub double %28, %31
  store double %32, ptr %8, align 8, !tbaa !57
  %33 = load double, ptr %6, align 8, !tbaa !57
  %34 = fneg double %33
  %35 = load ptr, ptr %5, align 8, !tbaa !41
  %36 = getelementptr inbounds nuw %"struct.(anonymous namespace)::pj_opaque", ptr %35, i32 0, i32 5
  %37 = load double, ptr %36, align 8, !tbaa !64
  %38 = load double, ptr %7, align 8, !tbaa !57
  %39 = load ptr, ptr %5, align 8, !tbaa !41
  %40 = getelementptr inbounds nuw %"struct.(anonymous namespace)::pj_opaque", ptr %39, i32 0, i32 6
  %41 = load double, ptr %40, align 8, !tbaa !65
  %42 = fmul double %38, %41
  %43 = call double @llvm.fmuladd.f64(double %34, double %37, double %42)
  %44 = load ptr, ptr %3, align 8, !tbaa !71
  %45 = getelementptr inbounds nuw %struct.PJ_XYZ, ptr %44, i32 0, i32 0
  store double %43, ptr %45, align 8, !tbaa !47
  %46 = load double, ptr %6, align 8, !tbaa !57
  %47 = fneg double %46
  %48 = load ptr, ptr %5, align 8, !tbaa !41
  %49 = getelementptr inbounds nuw %"struct.(anonymous namespace)::pj_opaque", ptr %48, i32 0, i32 3
  %50 = load double, ptr %49, align 8, !tbaa !61
  %51 = fmul double %47, %50
  %52 = load ptr, ptr %5, align 8, !tbaa !41
  %53 = getelementptr inbounds nuw %"struct.(anonymous namespace)::pj_opaque", ptr %52, i32 0, i32 6
  %54 = load double, ptr %53, align 8, !tbaa !65
  %55 = load double, ptr %7, align 8, !tbaa !57
  %56 = load ptr, ptr %5, align 8, !tbaa !41
  %57 = getelementptr inbounds nuw %"struct.(anonymous namespace)::pj_opaque", ptr %56, i32 0, i32 3
  %58 = load double, ptr %57, align 8, !tbaa !61
  %59 = fmul double %55, %58
  %60 = load ptr, ptr %5, align 8, !tbaa !41
  %61 = getelementptr inbounds nuw %"struct.(anonymous namespace)::pj_opaque", ptr %60, i32 0, i32 5
  %62 = load double, ptr %61, align 8, !tbaa !64
  %63 = fmul double %59, %62
  %64 = fneg double %63
  %65 = call double @llvm.fmuladd.f64(double %51, double %54, double %64)
  %66 = load double, ptr %8, align 8, !tbaa !57
  %67 = load ptr, ptr %5, align 8, !tbaa !41
  %68 = getelementptr inbounds nuw %"struct.(anonymous namespace)::pj_opaque", ptr %67, i32 0, i32 4
  %69 = load double, ptr %68, align 8, !tbaa !62
  %70 = call double @llvm.fmuladd.f64(double %66, double %69, double %65)
  %71 = load ptr, ptr %3, align 8, !tbaa !71
  %72 = getelementptr inbounds nuw %struct.PJ_XYZ, ptr %71, i32 0, i32 1
  store double %70, ptr %72, align 8, !tbaa !47
  %73 = load double, ptr %6, align 8, !tbaa !57
  %74 = load ptr, ptr %5, align 8, !tbaa !41
  %75 = getelementptr inbounds nuw %"struct.(anonymous namespace)::pj_opaque", ptr %74, i32 0, i32 4
  %76 = load double, ptr %75, align 8, !tbaa !62
  %77 = fmul double %73, %76
  %78 = load ptr, ptr %5, align 8, !tbaa !41
  %79 = getelementptr inbounds nuw %"struct.(anonymous namespace)::pj_opaque", ptr %78, i32 0, i32 6
  %80 = load double, ptr %79, align 8, !tbaa !65
  %81 = load double, ptr %7, align 8, !tbaa !57
  %82 = load ptr, ptr %5, align 8, !tbaa !41
  %83 = getelementptr inbounds nuw %"struct.(anonymous namespace)::pj_opaque", ptr %82, i32 0, i32 4
  %84 = load double, ptr %83, align 8, !tbaa !62
  %85 = fmul double %81, %84
  %86 = load ptr, ptr %5, align 8, !tbaa !41
  %87 = getelementptr inbounds nuw %"struct.(anonymous namespace)::pj_opaque", ptr %86, i32 0, i32 5
  %88 = load double, ptr %87, align 8, !tbaa !64
  %89 = fmul double %85, %88
  %90 = call double @llvm.fmuladd.f64(double %77, double %80, double %89)
  %91 = load double, ptr %8, align 8, !tbaa !57
  %92 = load ptr, ptr %5, align 8, !tbaa !41
  %93 = getelementptr inbounds nuw %"struct.(anonymous namespace)::pj_opaque", ptr %92, i32 0, i32 3
  %94 = load double, ptr %93, align 8, !tbaa !61
  %95 = call double @llvm.fmuladd.f64(double %91, double %94, double %90)
  %96 = load ptr, ptr %3, align 8, !tbaa !71
  %97 = getelementptr inbounds nuw %struct.PJ_XYZ, ptr %96, i32 0, i32 2
  store double %95, ptr %97, align 8, !tbaa !47
  call void @llvm.lifetime.end.p0(i64 8, ptr %8) #8
  call void @llvm.lifetime.end.p0(i64 8, ptr %7) #8
  call void @llvm.lifetime.end.p0(i64 8, ptr %6) #8
  call void @llvm.lifetime.end.p0(i64 8, ptr %5) #8
  ret void
}