; Function Attrs: mustprogress nofree norecurse nosync nounwind willreturn memory(read, argmem: readwrite, inaccessiblemem: none) uwtable
define internal void @_ZL15topocentric_fwdR8PJ_COORDP8PJconsts(ptr noundef nonnull align 8 captures(none) dereferenceable(32) %0, ptr noundef readonly captures(none) %1) #5 {
  %3 = getelementptr inbounds nuw i8, ptr %1, i64 88
  %4 = load ptr, ptr %3, align 8, !tbaa !40
  %5 = load double, ptr %0, align 8, !tbaa !64
  %6 = load double, ptr %4, align 8, !tbaa !43
  %7 = fsub double %5, %6
  %8 = getelementptr inbounds nuw i8, ptr %0, i64 8
  %9 = load double, ptr %8, align 8, !tbaa !64
  %10 = getelementptr inbounds nuw i8, ptr %4, i64 8
  %11 = load double, ptr %10, align 8, !tbaa !45
  %12 = fsub double %9, %11
  %13 = getelementptr inbounds nuw i8, ptr %0, i64 16
  %14 = load double, ptr %13, align 8, !tbaa !64
  %15 = getelementptr inbounds nuw i8, ptr %4, i64 16
  %16 = load double, ptr %15, align 8, !tbaa !46
  %17 = fsub double %14, %16
  %18 = fneg double %7
  %19 = getelementptr inbounds nuw i8, ptr %4, i64 40
  %20 = load double, ptr %19, align 8, !tbaa !60
  %21 = getelementptr inbounds nuw i8, ptr %4, i64 48
  %22 = load double, ptr %21, align 8, !tbaa !61
  %23 = fmul double %12, %22
  %24 = tail call double @llvm.fmuladd.f64(double %18, double %20, double %23)
  store double %24, ptr %0, align 8, !tbaa !64
  %25 = getelementptr inbounds nuw i8, ptr %4, i64 24
  %26 = load double, ptr %25, align 8, !tbaa !58
  %27 = fmul double %26, %18
  %28 = load double, ptr %21, align 8, !tbaa !61
  %29 = fmul double %12, %26
  %30 = load double, ptr %19, align 8, !tbaa !60
  %31 = fneg double %30
  %32 = fmul double %29, %31
  %33 = tail call double @llvm.fmuladd.f64(double %27, double %28, double %32)
  %34 = getelementptr inbounds nuw i8, ptr %4, i64 32
  %35 = load double, ptr %34, align 8, !tbaa !59
  %36 = tail call double @llvm.fmuladd.f64(double %17, double %35, double %33)
  store double %36, ptr %8, align 8, !tbaa !64
  %37 = load double, ptr %34, align 8, !tbaa !59
  %38 = fmul double %7, %37
  %39 = load double, ptr %21, align 8, !tbaa !61
  %40 = fmul double %12, %37
  %41 = load double, ptr %19, align 8, !tbaa !60
  %42 = fmul double %40, %41
  %43 = tail call double @llvm.fmuladd.f64(double %38, double %39, double %42)
  %44 = load double, ptr %25, align 8, !tbaa !58
  %45 = tail call double @llvm.fmuladd.f64(double %17, double %44, double %43)
  store double %45, ptr %13, align 8, !tbaa !64
  ret void
}